; Function Attrs: nounwind uwtable
define ptr @l___private_Lean_Elab_BuiltinTerm_0__Lean_Elab_Term_elabOptLevel(ptr noundef %0, ptr noundef %1, ptr noundef %2, ptr noundef %3, ptr noundef %4, ptr noundef %5, ptr noundef %6, ptr noundef %7) local_unnamed_addr #0 {
  %9 = tail call zeroext i8 @l_Lean_Syntax_isNone(ptr noundef %0) #6
  %10 = icmp eq i8 %9, 0
  br i1 %10, label %11, label %14

11:                                               ; preds = %8
  %12 = tail call ptr @l_Lean_Syntax_getArg(ptr noundef %0, ptr noundef nonnull inttoptr (i64 1 to ptr)) #6
  %13 = tail call ptr @l_Lean_Elab_Term_elabLevel(ptr noundef %12, ptr noundef %1, ptr noundef %2, ptr noundef %3, ptr noundef %4, ptr noundef %5, ptr noundef %6, ptr noundef %7) #6
  br label %22

14:                                               ; preds = %8
  %15 = load ptr, ptr @l_Lean_levelZero, align 8, !tbaa !4
  tail call void @lean_inc_heartbeat() #6
  %16 = tail call noalias ptr @mi_malloc_small(i64 noundef 24) #6
  %17 = icmp eq ptr %16, null
  br i1 %17, label %18, label %lean_alloc_ctor.exit

18:                                               ; preds = %14
  tail call void @lean_internal_panic_out_of_memory() #7
  unreachable

lean_alloc_ctor.exit:                             ; preds = %14
  %19 = getelementptr inbounds nuw i8, ptr %16, i64 4
  store i32 1, ptr %16, align 4, !tbaa !8
  store i32 131096, ptr %19, align 4
  %20 = getelementptr inbounds nuw i8, ptr %16, i64 8
  store ptr %15, ptr %20, align 8, !tbaa !4
  %21 = getelementptr inbounds nuw i8, ptr %16, i64 16
  store ptr %7, ptr %21, align 8, !tbaa !4
  br label %22

22:                                               ; preds = %lean_alloc_ctor.exit, %11
  %.0 = phi ptr [ %13, %11 ], [ %16, %lean_alloc_ctor.exit ]
  ret ptr %.0
}